target datalayout = "e-m:e-p270:32:32-p271:32:32-p272:64:64-i64:64-i128:128-f80:128-n8:16:32:64-S128"
target triple = "x86_64-pc-linux-gnu"

%"class.doctest::String" = type { %union.anon.7 }
%union.anon.7 = type { %"struct.doctest::String::view", [8 x i8] }
%"struct.doctest::String::view" = type { ptr, i32, i32 }
%"struct.doctest::Approx" = type { double, double, double }

@.str.4 = private unnamed_addr constant [3 x i8] c" )\00", align 1
@.str.57 = private unnamed_addr constant [9 x i8] c"Approx( \00", align 1
@_ZN7doctest6StringD1Ev = dso_local unnamed_addr alias void (ptr), ptr @_ZN7doctest6StringD2Ev
@_ZN7doctest6StringC1EPKc = dso_local unnamed_addr alias void (ptr, ptr), ptr @_ZN7doctest6StringC2EPKc

; Function Attrs: mustprogress uwtable
define available_externally noundef nonnull align 8 dereferenceable(8) ptr @_ZNSolsEd(ptr noundef nonnull align 8 dereferenceable(8) %0, double noundef %1) #8 align 2 {
  %3 = alloca ptr, align 8
  %4 = alloca double, align 8
  store ptr %0, ptr %3, align 8, !tbaa !67
  store double %1, ptr %4, align 8, !tbaa !18
  %5 = load ptr, ptr %3, align 8
  %6 = load double, ptr %4, align 8, !tbaa !18
  %7 = call noundef nonnull align 8 dereferenceable(8) ptr @_ZNSo9_M_insertIdEERSoT_(ptr noundef nonnull align 8 dereferenceable(8) %5, double noundef %6)
  ret ptr %7
}

; Function Attrs: mustprogress uwtable
define linkonce_odr dso_local void @_ZN7doctest6detail11toStreamLitIdEENS_6StringET_(ptr dead_on_unwind noalias writable sret(%"class.doctest::String") align 8 %0, double noundef %1) #8 comdat {
  %3 = alloca ptr, align 8
  %4 = alloca double, align 8
  %5 = alloca ptr, align 8
  store ptr %0, ptr %3, align 8
  store double %1, ptr %4, align 8, !tbaa !18
  call void @llvm.lifetime.start.p0(i64 8, ptr %5) #7
  %6 = call noundef ptr @_ZN7doctest6detail8tlssPushEv()
  store ptr %6, ptr %5, align 8, !tbaa !67
  %7 = load ptr, ptr %5, align 8, !tbaa !67
  %8 = load double, ptr %4, align 8, !tbaa !18
  %9 = call noundef nonnull align 8 dereferenceable(8) ptr @_ZNSolsEd(ptr noundef nonnull align 8 dereferenceable(8) %7, double noundef %8)
  call void @_ZN7doctest6detail7tlssPopEv(ptr dead_on_unwind writable sret(%"class.doctest::String") align 8 %0)
  call void @llvm.lifetime.end.p0(i64 8, ptr %5) #7
  ret void
}

; Function Attrs: mustprogress uwtable
define dso_local void @_ZN7doctest8toStringEd(ptr dead_on_unwind noalias writable sret(%"class.doctest::String") align 8 %0, double noundef %1) #8 {
  %3 = alloca ptr, align 8
  %4 = alloca double, align 8
  store ptr %0, ptr %3, align 8
  store double %1, ptr %4, align 8, !tbaa !18
  %5 = load double, ptr %4, align 8, !tbaa !18
  call void @_ZN7doctest6detail11toStreamLitIdEENS_6StringET_(ptr dead_on_unwind writable sret(%"class.doctest::String") align 8 %0, double noundef %5)
  ret void
}

; Function Attrs: mustprogress uwtable
define dso_local void @_ZN7doctest8toStringERKNS_6ApproxE(ptr dead_on_unwind noalias writable sret(%"class.doctest::String") align 8 %0, ptr noundef nonnull align 8 dereferenceable(24) %1) #8 personality ptr @__gxx_personality_v0 {
  %3 = alloca ptr, align 8
  %4 = alloca ptr, align 8
  %5 = alloca %"class.doctest::String", align 8
  %6 = alloca %"class.doctest::String", align 8
  %7 = alloca %"class.doctest::String", align 8
  %8 = alloca ptr, align 8
  %9 = alloca i32, align 4
  %10 = alloca %"class.doctest::String", align 8
  store ptr %0, ptr %3, align 8
  store ptr %1, ptr %4, align 8, !tbaa !99
  call void @llvm.lifetime.start.p0(i64 24, ptr %5) #7
  call void @llvm.lifetime.start.p0(i64 24, ptr %6) #7
  call void @_ZN7doctest6StringC1EPKc(ptr noundef nonnull align 8 dereferenceable(24) %6, ptr noundef @.str.57)
  call void @llvm.lifetime.start.p0(i64 24, ptr %7) #7
  %11 = load ptr, ptr %4, align 8, !tbaa !99
  %12 = getelementptr inbounds nuw %"struct.doctest::Approx", ptr %11, i32 0, i32 2
  %13 = load double, ptr %12, align 8, !tbaa !104
  invoke void @_ZN7doctest8toStringEd(ptr dead_on_unwind writable sret(%"class.doctest::String") align 8 %7, double noundef %13)
          to label %14 unwind label %18

14:                                               ; preds = %2
  invoke void @_ZN7doctestplERKNS_6StringES2_(ptr dead_on_unwind writable sret(%"class.doctest::String") align 8 %5, ptr noundef nonnull align 8 dereferenceable(24) %6, ptr noundef nonnull align 8 dereferenceable(24) %7)
          to label %15 unwind label %22

15:                                               ; preds = %14
  call void @llvm.lifetime.start.p0(i64 24, ptr %10) #7
  invoke void @_ZN7doctest6StringC1EPKc(ptr noundef nonnull align 8 dereferenceable(24) %10, ptr noundef @.str.4)
          to label %16 unwind label %26

16:                                               ; preds = %15
  invoke void @_ZN7doctestplERKNS_6StringES2_(ptr dead_on_unwind writable sret(%"class.doctest::String") align 8 %0, ptr noundef nonnull align 8 dereferenceable(24) %5, ptr noundef nonnull align 8 dereferenceable(24) %10)
          to label %17 unwind label %30

17:                                               ; preds = %16
  call void @_ZN7doctest6StringD1Ev(ptr noundef nonnull align 8 dereferenceable(24) %10) #7
  call void @llvm.lifetime.end.p0(i64 24, ptr %10) #7
  call void @_ZN7doctest6StringD1Ev(ptr noundef nonnull align 8 dereferenceable(24) %5) #7
  call void @_ZN7doctest6StringD1Ev(ptr noundef nonnull align 8 dereferenceable(24) %7) #7
  call void @llvm.lifetime.end.p0(i64 24, ptr %7) #7
  call void @_ZN7doctest6StringD1Ev(ptr noundef nonnull align 8 dereferenceable(24) %6) #7
  call void @llvm.lifetime.end.p0(i64 24, ptr %6) #7
  call void @llvm.lifetime.end.p0(i64 24, ptr %5) #7
  ret void

18:                                               ; preds = %2
  %19 = landingpad { ptr, i32 }
          cleanup
  %20 = extractvalue { ptr, i32 } %19, 0
  store ptr %20, ptr %8, align 8
  %21 = extractvalue { ptr, i32 } %19, 1
  store i32 %21, ptr %9, align 4
  br label %36

22:                                               ; preds = %14
  %23 = landingpad { ptr, i32 }
          cleanup
  %24 = extractvalue { ptr, i32 } %23, 0
  store ptr %24, ptr %8, align 8
  %25 = extractvalue { ptr, i32 } %23, 1
  store i32 %25, ptr %9, align 4
  br label %35

26:                                               ; preds = %15
  %27 = landingpad { ptr, i32 }
          cleanup
  %28 = extractvalue { ptr, i32 } %27, 0
  store ptr %28, ptr %8, align 8
  %29 = extractvalue { ptr, i32 } %27, 1
  store i32 %29, ptr %9, align 4
  br label %34

30:                                               ; preds = %16
  %31 = landingpad { ptr, i32 }
          cleanup
  %32 = extractvalue { ptr, i32 } %31, 0
  store ptr %32, ptr %8, align 8
  %33 = extractvalue { ptr, i32 } %31, 1
  store i32 %33, ptr %9, align 4
  call void @_ZN7doctest6StringD1Ev(ptr noundef nonnull align 8 dereferenceable(24) %10) #7
  br label %34

34:                                               ; preds = %30, %26
  call void @llvm.lifetime.end.p0(i64 24, ptr %10) #7
  call void @_ZN7doctest6StringD1Ev(ptr noundef nonnull align 8 dereferenceable(24) %5) #7
  br label %35

35:                                               ; preds = %34, %22
  call void @_ZN7doctest6StringD1Ev(ptr noundef nonnull align 8 dereferenceable(24) %7) #7
  br label %36

36:                                               ; preds = %35, %18
  call void @llvm.lifetime.end.p0(i64 24, ptr %7) #7
  call void @_ZN7doctest6StringD1Ev(ptr noundef nonnull align 8 dereferenceable(24) %6) #7
  call void @llvm.lifetime.end.p0(i64 24, ptr %6) #7
  call void @llvm.lifetime.end.p0(i64 24, ptr %5) #7
  br label %37

37:                                               ; preds = %36
  %38 = load ptr, ptr %8, align 8
  %39 = load i32, ptr %9, align 4
  %40 = insertvalue { ptr, i32 } poison, ptr %38, 0
  %41 = insertvalue { ptr, i32 } %40, i32 %39, 1
  resume { ptr, i32 } %41
}